; Function Attrs: nounwind uwtable
define hidden void @phpdbg_list_function(ptr nocapture noundef readonly %0) local_unnamed_addr #0 {
  %2 = load i8, ptr %0, align 8
  %.not = icmp eq i8 %2, 2
  br i1 %.not, label %9, label %3

3:                                                ; preds = %1
  %4 = load i32, ptr getelementptr inbounds (%struct._zend_phpdbg_globals, ptr @phpdbg_globals, i64 0, i32 39, i64 1), align 4
  %5 = getelementptr inbounds i8, ptr %0, i64 8
  %6 = load ptr, ptr %5, align 8
  %7 = getelementptr inbounds i8, ptr %6, i64 24
  %8 = tail call i32 (i32, i32, ptr, ...) @phpdbg_print(i32 noundef 1, i32 noundef %4, ptr noundef nonnull @.str.22, ptr noundef nonnull %7) #11
  br label %18

9:                                                ; preds = %1
  %10 = getelementptr inbounds i8, ptr %0, i64 152
  %11 = load ptr, ptr %10, align 8
  %12 = getelementptr inbounds i8, ptr %0, i64 164
  %13 = load i32, ptr %12, align 4
  %14 = getelementptr inbounds i8, ptr %0, i64 160
  %15 = load i32, ptr %14, align 8
  %16 = add i32 %13, 1
  %17 = sub i32 %16, %15
  tail call void @phpdbg_list_file(ptr noundef %11, i32 noundef %17, i32 noundef %15, i32 noundef 0)
  br label %18

18:                                               ; preds = %9, %3
  ret void
}